; ModuleID = '12/812.c'
source_filename = "12/812.c"
target datalayout = "e-m:e-p270:32:32-p271:32:32-p272:64:64-i64:64-f80:128-n8:16:32:64-S128"
target triple = "x86_64-pc-linux-gnu"

@.str = private unnamed_addr constant [3 x i8] c"%d\00", align 1
@.str.1 = private unnamed_addr constant [4 x i8] c"%d\0A\00", align 1

; Function Attrs: noinline nounwind uwtable
define dso_local i32 @main() #0 {
  %1 = alloca i32, align 4
  %2 = alloca i32, align 4
  %3 = alloca i32, align 4
  %4 = alloca i32, align 4
  %5 = alloca i32, align 4
  %6 = alloca [16 x i32], align 16
  %7 = alloca [100 x i32], align 16
  store i32 0, i32* %1, align 4
  store i32 1, i32* %4, align 4
  store i32 1, i32* %5, align 4
  %8 = bitcast [16 x i32]* %6 to i8*
  call void @llvm.memset.p0i8.i64(i8* align 16 %8, i8 0, i64 64, i1 false)
  %9 = bitcast [100 x i32]* %7 to i8*
  call void @llvm.memset.p0i8.i64(i8* align 16 %9, i8 0, i64 400, i1 false)
  br label %10

10:                                               ; preds = %79, %0
  %11 = load i32, i32* %5, align 4
  %12 = icmp ne i32 %11, 0
  br i1 %12, label %13, label %80

13:                                               ; preds = %10
  store i32 1, i32* %2, align 4
  br label %14

14:                                               ; preds = %76, %13
  %15 = load i32, i32* %2, align 4
  %16 = icmp slt i32 %15, 16
  br i1 %16, label %17, label %79

17:                                               ; preds = %14
  %18 = load i32, i32* %2, align 4
  %19 = sext i32 %18 to i64
  %20 = getelementptr inbounds [16 x i32], [16 x i32]* %6, i64 0, i64 %19
  %21 = call i32 (i8*, ...) @__isoc99_scanf(i8* getelementptr inbounds ([3 x i8], [3 x i8]* @.str, i64 0, i64 0), i32* %20)
  %22 = load i32, i32* %2, align 4
  %23 = sext i32 %22 to i64
  %24 = getelementptr inbounds [16 x i32], [16 x i32]* %6, i64 0, i64 %23
  %25 = load i32, i32* %24, align 4
  %26 = icmp eq i32 %25, -1
  br i1 %26, label %27, label %28

27:                                               ; preds = %17
  store i32 0, i32* %5, align 4
  br label %79

28:                                               ; preds = %17
  %29 = load i32, i32* %2, align 4
  %30 = sext i32 %29 to i64
  %31 = getelementptr inbounds [16 x i32], [16 x i32]* %6, i64 0, i64 %30
  %32 = load i32, i32* %31, align 4
  %33 = icmp eq i32 %32, 0
  br i1 %33, label %34, label %37

34:                                               ; preds = %28
  %35 = load i32, i32* %4, align 4
  %36 = add nsw i32 %35, 1
  store i32 %36, i32* %4, align 4
  br label %79

37:                                               ; preds = %28
  %38 = load i32, i32* %2, align 4
  %39 = sub nsw i32 %38, 1
  store i32 %39, i32* %3, align 4
  br label %40

40:                                               ; preds = %72, %37
  %41 = load i32, i32* %3, align 4
  %42 = icmp sgt i32 %41, 0
  br i1 %42, label %43, label %75

43:                                               ; preds = %40
  %44 = load i32, i32* %2, align 4
  %45 = sext i32 %44 to i64
  %46 = getelementptr inbounds [16 x i32], [16 x i32]* %6, i64 0, i64 %45
  %47 = load i32, i32* %46, align 4
  %48 = load i32, i32* %3, align 4
  %49 = sext i32 %48 to i64
  %50 = getelementptr inbounds [16 x i32], [16 x i32]* %6, i64 0, i64 %49
  %51 = load i32, i32* %50, align 4
  %52 = mul nsw i32 2, %51
  %53 = icmp eq i32 %47, %52
  br i1 %53, label %65, label %54

54:                                               ; preds = %43
  %55 = load i32, i32* %2, align 4
  %56 = sext i32 %55 to i64
  %57 = getelementptr inbounds [16 x i32], [16 x i32]* %6, i64 0, i64 %56
  %58 = load i32, i32* %57, align 4
  %59 = mul nsw i32 2, %58
  %60 = load i32, i32* %3, align 4
  %61 = sext i32 %60 to i64
  %62 = getelementptr inbounds [16 x i32], [16 x i32]* %6, i64 0, i64 %61
  %63 = load i32, i32* %62, align 4
  %64 = icmp eq i32 %59, %63
  br i1 %64, label %65, label %71

65:                                               ; preds = %54, %43
  %66 = load i32, i32* %4, align 4
  %67 = sext i32 %66 to i64
  %68 = getelementptr inbounds [100 x i32], [100 x i32]* %7, i64 0, i64 %67
  %69 = load i32, i32* %68, align 4
  %70 = add nsw i32 %69, 1
  store i32 %70, i32* %68, align 4
  br label %71

71:                                               ; preds = %65, %54
  br label %72

72:                                               ; preds = %71
  %73 = load i32, i32* %3, align 4
  %74 = add nsw i32 %73, -1
  store i32 %74, i32* %3, align 4
  br label %40

75:                                               ; preds = %40
  br label %76

76:                                               ; preds = %75
  %77 = load i32, i32* %2, align 4
  %78 = add nsw i32 %77, 1
  store i32 %78, i32* %2, align 4
  br label %14

79:                                               ; preds = %34, %27, %14
  br label %10

80:                                               ; preds = %10
  store i32 1, i32* %2, align 4
  br label %81

81:                                               ; preds = %96, %80
  %82 = load i32, i32* %4, align 4
  %83 = icmp sgt i32 %82, 0
  br i1 %83, label %84, label %88

84:                                               ; preds = %81
  %85 = load i32, i32* %2, align 4
  %86 = load i32, i32* %4, align 4
  %87 = icmp slt i32 %85, %86
  br label %88

88:                                               ; preds = %84, %81
  %89 = phi i1 [ false, %81 ], [ %87, %84 ]
  br i1 %89, label %90, label %99

90:                                               ; preds = %88
  %91 = load i32, i32* %2, align 4
  %92 = sext i32 %91 to i64
  %93 = getelementptr inbounds [100 x i32], [100 x i32]* %7, i64 0, i64 %92
  %94 = load i32, i32* %93, align 4
  %95 = call i32 (i8*, ...) @printf(i8* getelementptr inbounds ([4 x i8], [4 x i8]* @.str.1, i64 0, i64 0), i32 %94)
  br label %96

96:                                               ; preds = %90
  %97 = load i32, i32* %2, align 4
  %98 = add nsw i32 %97, 1
  store i32 %98, i32* %2, align 4
  br label %81

99:                                               ; preds = %88
  ret i32 0
}

; Function Attrs: argmemonly nounwind willreturn
declare void @llvm.memset.p0i8.i64(i8* nocapture writeonly, i8, i64, i1 immarg) #1

declare dso_local i32 @__isoc99_scanf(i8*, ...) #2

declare dso_local i32 @printf(i8*, ...) #2


!llvm.module.flags = !{!0}
!llvm.ident = !{!1}

!0 = !{i32 1, !"wchar_size", i32 4}
!1 = !{!"clang version 10.0.0-4ubuntu1 "}
